; Function Attrs: mustprogress nounwind uwtable
define hidden void @_ZN14MacroAssembler6vpaddwE11XMMRegisterS0_7Addressi(ptr noundef nonnull align 8 dereferenceable(40) %0, i32 %1, i32 %2, ptr noundef %3, i32 noundef %4) local_unnamed_addr #0 align 2 {
  %6 = alloca %class.Address, align 8
  call void @llvm.memcpy.p0.p0.i64(ptr noundef nonnull align 8 dereferenceable(21) %6, ptr noundef nonnull align 8 dereferenceable(21) %3, i64 21, i1 false)
  %7 = getelementptr inbounds i8, ptr %6, i64 24
  %8 = getelementptr inbounds i8, ptr %3, i64 24
  %9 = load ptr, ptr %8, align 8
  %10 = getelementptr inbounds i8, ptr %9, i64 16
  %11 = load ptr, ptr %10, align 8
  call void %11(ptr noundef nonnull align 8 dereferenceable(20) %8, ptr noundef nonnull align 8 dereferenceable(40) %7) #18
  call void @_ZN9Assembler6vpaddwE11XMMRegisterS0_7Addressi(ptr noundef nonnull align 8 dereferenceable(40) %0, i32 %1, i32 %2, ptr noundef nonnull %6, i32 noundef %4) #18
  ret void
}